target datalayout = "e-m:e-p270:32:32-p271:32:32-p272:64:64-i64:64-i128:128-f80:128-n8:16:32:64-S128"
target triple = "x86_64-pc-linux-gnu"

%struct.Vec_Int_t_ = type { i32, i32, ptr }

; Function Attrs: inlinehint nounwind uwtable
define internal i32 @Vec_IntEntry(ptr noundef %0, i32 noundef %1) #3 {
  %3 = alloca ptr, align 8
  %4 = alloca i32, align 4
  store ptr %0, ptr %3, align 8, !tbaa !27
  store i32 %1, ptr %4, align 4, !tbaa !3
  %5 = load ptr, ptr %3, align 8, !tbaa !27
  %6 = getelementptr inbounds nuw %struct.Vec_Int_t_, ptr %5, i32 0, i32 2
  %7 = load ptr, ptr %6, align 8, !tbaa !35
  %8 = load i32, ptr %4, align 4, !tbaa !3
  %9 = sext i32 %8 to i64
  %10 = getelementptr inbounds i32, ptr %7, i64 %9
  %11 = load i32, ptr %10, align 4, !tbaa !3
  ret i32 %11
}

; Function Attrs: inlinehint nounwind uwtable
define internal i32 @Vec_IntSize(ptr noundef %0) #3 {
  %2 = alloca ptr, align 8
  store ptr %0, ptr %2, align 8, !tbaa !27
  %3 = load ptr, ptr %2, align 8, !tbaa !27
  %4 = getelementptr inbounds nuw %struct.Vec_Int_t_, ptr %3, i32 0, i32 1
  %5 = load i32, ptr %4, align 4, !tbaa !38
  ret i32 %5
}

; Function Attrs: nounwind uwtable
define i32 @Ree_ManCountFadds(ptr noundef %0) #0 {
  %2 = alloca ptr, align 8
  %3 = alloca i32, align 4
  %4 = alloca i32, align 4
  store ptr %0, ptr %2, align 8, !tbaa !27
  call void @llvm.lifetime.start.p0(i64 4, ptr %3) #12
  call void @llvm.lifetime.start.p0(i64 4, ptr %4) #12
  store i32 0, ptr %4, align 4, !tbaa !3
  store i32 0, ptr %3, align 4, !tbaa !3
  br label %5

5:                                                ; preds = %22, %1
  %6 = load i32, ptr %3, align 4, !tbaa !3
  %7 = mul nsw i32 6, %6
  %8 = load ptr, ptr %2, align 8, !tbaa !27
  %9 = call i32 @Vec_IntSize(ptr noundef %8)
  %10 = icmp slt i32 %7, %9
  br i1 %10, label %11, label %25

11:                                               ; preds = %5
  %12 = load ptr, ptr %2, align 8, !tbaa !27
  %13 = load i32, ptr %3, align 4, !tbaa !3
  %14 = mul nsw i32 6, %13
  %15 = add nsw i32 %14, 2
  %16 = call i32 @Vec_IntEntry(ptr noundef %12, i32 noundef %15)
  %17 = icmp ne i32 %16, 0
  br i1 %17, label %18, label %21

18:                                               ; preds = %11
  %19 = load i32, ptr %4, align 4, !tbaa !3
  %20 = add nsw i32 %19, 1
  store i32 %20, ptr %4, align 4, !tbaa !3
  br label %21

21:                                               ; preds = %18, %11
  br label %22

22:                                               ; preds = %21
  %23 = load i32, ptr %3, align 4, !tbaa !3
  %24 = add nsw i32 %23, 1
  store i32 %24, ptr %3, align 4, !tbaa !3
  br label %5, !llvm.loop !102

25:                                               ; preds = %5
  %26 = load i32, ptr %4, align 4, !tbaa !3
  call void @llvm.lifetime.end.p0(i64 4, ptr %4) #12
  call void @llvm.lifetime.end.p0(i64 4, ptr %3) #12
  ret i32 %26
}