; Function Attrs: nofree norecurse nosync nounwind memory(read, inaccessiblemem: none) uwtable
define i32 @Ree_ManCountFadds(ptr noundef readonly captures(none) %0) local_unnamed_addr #11 {
  %2 = getelementptr i8, ptr %0, i64 4
  %.val = load i32, ptr %2, align 4, !tbaa !26
  %3 = icmp sgt i32 %.val, 0
  br i1 %3, label %.lr.ph, label %._crit_edge

.lr.ph:                                           ; preds = %1
  %4 = getelementptr i8, ptr %0, i64 8
  %.val8 = load ptr, ptr %4, align 8, !tbaa !24
  %invariant.gep = getelementptr inbounds nuw i8, ptr %.val8, i64 8
  %5 = add nsw i32 %.val, -1
  %6 = udiv i32 %5, 6
  %7 = add nuw nsw i32 %6, 1
  %wide.trip.count = zext nneg i32 %7 to i64
  br label %8

8:                                                ; preds = %.lr.ph, %8
  %indvars.iv11 = phi i64 [ 0, %.lr.ph ], [ %indvars.iv.next12, %8 ]
  %indvars.iv = phi i64 [ 0, %.lr.ph ], [ %indvars.iv.next, %8 ]
  %.010 = phi i32 [ 0, %.lr.ph ], [ %spec.select, %8 ]
  %gep = getelementptr inbounds nuw i32, ptr %invariant.gep, i64 %indvars.iv
  %9 = load i32, ptr %gep, align 4, !tbaa !17
  %.not = icmp ne i32 %9, 0
  %10 = zext i1 %.not to i32
  %spec.select = add nuw nsw i32 %.010, %10
  %indvars.iv.next12 = add nuw nsw i64 %indvars.iv11, 1
  %indvars.iv.next = add nuw nsw i64 %indvars.iv, 6
  %exitcond.not = icmp eq i64 %indvars.iv.next12, %wide.trip.count
  br i1 %exitcond.not, label %._crit_edge, label %8, !llvm.loop !95

._crit_edge:                                      ; preds = %8, %1
  %.0.lcssa = phi i32 [ 0, %1 ], [ %spec.select, %8 ]
  ret i32 %.0.lcssa
}